; ModuleID = '31/281.c'
source_filename = "31/281.c"
target datalayout = "e-m:e-p270:32:32-p271:32:32-p272:64:64-i64:64-f80:128-n8:16:32:64-S128"
target triple = "x86_64-pc-linux-gnu"

%struct.student = type { [30 x i8], [20 x i8], [20 x i8], [20 x i8], [20 x i8], [30 x i8], %struct.student* }

@n = common dso_local global i32 0, align 4
@.str = private unnamed_addr constant [13 x i8] c"%s%s%s%s%s%s\00", align 1
@.str.1 = private unnamed_addr constant [4 x i8] c"end\00", align 1
@.str.2 = private unnamed_addr constant [19 x i8] c"%s %s %s %s %s %s\0A\00", align 1

; Function Attrs: noinline nounwind uwtable
define dso_local %struct.student* @creat() #0 {
  %1 = alloca %struct.student*, align 8
  %2 = alloca %struct.student*, align 8
  %3 = alloca %struct.student*, align 8
  store i32 0, i32* @n, align 4
  %4 = call noalias i8* @malloc(i64 100) #4
  %5 = bitcast i8* %4 to %struct.student*
  store %struct.student* %5, %struct.student** %3, align 8
  store %struct.student* %5, %struct.student** %2, align 8
  %6 = load %struct.student*, %struct.student** %2, align 8
  %7 = getelementptr inbounds %struct.student, %struct.student* %6, i32 0, i32 0
  %8 = getelementptr inbounds [30 x i8], [30 x i8]* %7, i64 0, i64 0
  %9 = load %struct.student*, %struct.student** %2, align 8
  %10 = getelementptr inbounds %struct.student, %struct.student* %9, i32 0, i32 1
  %11 = getelementptr inbounds [20 x i8], [20 x i8]* %10, i64 0, i64 0
  %12 = load %struct.student*, %struct.student** %2, align 8
  %13 = getelementptr inbounds %struct.student, %struct.student* %12, i32 0, i32 2
  %14 = getelementptr inbounds [20 x i8], [20 x i8]* %13, i64 0, i64 0
  %15 = load %struct.student*, %struct.student** %2, align 8
  %16 = getelementptr inbounds %struct.student, %struct.student* %15, i32 0, i32 3
  %17 = getelementptr inbounds [20 x i8], [20 x i8]* %16, i64 0, i64 0
  %18 = load %struct.student*, %struct.student** %2, align 8
  %19 = getelementptr inbounds %struct.student, %struct.student* %18, i32 0, i32 4
  %20 = getelementptr inbounds [20 x i8], [20 x i8]* %19, i64 0, i64 0
  %21 = load %struct.student*, %struct.student** %2, align 8
  %22 = getelementptr inbounds %struct.student, %struct.student* %21, i32 0, i32 5
  %23 = getelementptr inbounds [30 x i8], [30 x i8]* %22, i64 0, i64 0
  %24 = call i32 (i8*, ...) @__isoc99_scanf(i8* getelementptr inbounds ([13 x i8], [13 x i8]* @.str, i64 0, i64 0), i8* %8, i8* %11, i8* %14, i8* %17, i8* %20, i8* %23)
  store %struct.student* null, %struct.student** %1, align 8
  br label %25

25:                                               ; preds = %43, %0
  %26 = load %struct.student*, %struct.student** %2, align 8
  %27 = getelementptr inbounds %struct.student, %struct.student* %26, i32 0, i32 0
  %28 = getelementptr inbounds [30 x i8], [30 x i8]* %27, i64 0, i64 0
  %29 = call i32 @strcmp(i8* %28, i8* getelementptr inbounds ([4 x i8], [4 x i8]* @.str.1, i64 0, i64 0)) #5
  %30 = icmp ne i32 %29, 0
  br i1 %30, label %31, label %67

31:                                               ; preds = %25
  %32 = load i32, i32* @n, align 4
  %33 = add nsw i32 %32, 1
  store i32 %33, i32* @n, align 4
  %34 = load i32, i32* @n, align 4
  %35 = icmp eq i32 %34, 1
  br i1 %35, label %36, label %39

36:                                               ; preds = %31
  %37 = load %struct.student*, %struct.student** %2, align 8
  %38 = getelementptr inbounds %struct.student, %struct.student* %37, i32 0, i32 6
  store %struct.student* null, %struct.student** %38, align 8
  br label %43

39:                                               ; preds = %31
  %40 = load %struct.student*, %struct.student** %3, align 8
  %41 = load %struct.student*, %struct.student** %2, align 8
  %42 = getelementptr inbounds %struct.student, %struct.student* %41, i32 0, i32 6
  store %struct.student* %40, %struct.student** %42, align 8
  br label %43

43:                                               ; preds = %39, %36
  %44 = load %struct.student*, %struct.student** %2, align 8
  store %struct.student* %44, %struct.student** %1, align 8
  %45 = load %struct.student*, %struct.student** %2, align 8
  store %struct.student* %45, %struct.student** %3, align 8
  %46 = call noalias i8* @malloc(i64 100) #4
  %47 = bitcast i8* %46 to %struct.student*
  store %struct.student* %47, %struct.student** %2, align 8
  %48 = load %struct.student*, %struct.student** %2, align 8
  %49 = getelementptr inbounds %struct.student, %struct.student* %48, i32 0, i32 0
  %50 = getelementptr inbounds [30 x i8], [30 x i8]* %49, i64 0, i64 0
  %51 = load %struct.student*, %struct.student** %2, align 8
  %52 = getelementptr inbounds %struct.student, %struct.student* %51, i32 0, i32 1
  %53 = getelementptr inbounds [20 x i8], [20 x i8]* %52, i64 0, i64 0
  %54 = load %struct.student*, %struct.student** %2, align 8
  %55 = getelementptr inbounds %struct.student, %struct.student* %54, i32 0, i32 2
  %56 = getelementptr inbounds [20 x i8], [20 x i8]* %55, i64 0, i64 0
  %57 = load %struct.student*, %struct.student** %2, align 8
  %58 = getelementptr inbounds %struct.student, %struct.student* %57, i32 0, i32 3
  %59 = getelementptr inbounds [20 x i8], [20 x i8]* %58, i64 0, i64 0
  %60 = load %struct.student*, %struct.student** %2, align 8
  %61 = getelementptr inbounds %struct.student, %struct.student* %60, i32 0, i32 4
  %62 = getelementptr inbounds [20 x i8], [20 x i8]* %61, i64 0, i64 0
  %63 = load %struct.student*, %struct.student** %2, align 8
  %64 = getelementptr inbounds %struct.student, %struct.student* %63, i32 0, i32 5
  %65 = getelementptr inbounds [30 x i8], [30 x i8]* %64, i64 0, i64 0
  %66 = call i32 (i8*, ...) @__isoc99_scanf(i8* getelementptr inbounds ([13 x i8], [13 x i8]* @.str, i64 0, i64 0), i8* %50, i8* %53, i8* %56, i8* %59, i8* %62, i8* %65)
  br label %25

67:                                               ; preds = %25
  %68 = load %struct.student*, %struct.student** %1, align 8
  ret %struct.student* %68
}

; Function Attrs: nounwind
declare dso_local noalias i8* @malloc(i64) #1

declare dso_local i32 @__isoc99_scanf(i8*, ...) #2

; Function Attrs: nounwind readonly
declare dso_local i32 @strcmp(i8*, i8*) #3

; Function Attrs: noinline nounwind uwtable
define dso_local void @print(%struct.student* %0) #0 {
  %2 = alloca %struct.student*, align 8
  %3 = alloca %struct.student*, align 8
  store %struct.student* %0, %struct.student** %2, align 8
  %4 = load %struct.student*, %struct.student** %2, align 8
  store %struct.student* %4, %struct.student** %3, align 8
  %5 = load %struct.student*, %struct.student** %2, align 8
  %6 = icmp ne %struct.student* %5, null
  br i1 %6, label %7, label %35

7:                                                ; preds = %1
  br label %8

8:                                                ; preds = %31, %7
  %9 = load %struct.student*, %struct.student** %3, align 8
  %10 = getelementptr inbounds %struct.student, %struct.student* %9, i32 0, i32 0
  %11 = getelementptr inbounds [30 x i8], [30 x i8]* %10, i64 0, i64 0
  %12 = load %struct.student*, %struct.student** %3, align 8
  %13 = getelementptr inbounds %struct.student, %struct.student* %12, i32 0, i32 1
  %14 = getelementptr inbounds [20 x i8], [20 x i8]* %13, i64 0, i64 0
  %15 = load %struct.student*, %struct.student** %3, align 8
  %16 = getelementptr inbounds %struct.student, %struct.student* %15, i32 0, i32 2
  %17 = getelementptr inbounds [20 x i8], [20 x i8]* %16, i64 0, i64 0
  %18 = load %struct.student*, %struct.student** %3, align 8
  %19 = getelementptr inbounds %struct.student, %struct.student* %18, i32 0, i32 3
  %20 = getelementptr inbounds [20 x i8], [20 x i8]* %19, i64 0, i64 0
  %21 = load %struct.student*, %struct.student** %3, align 8
  %22 = getelementptr inbounds %struct.student, %struct.student* %21, i32 0, i32 4
  %23 = getelementptr inbounds [20 x i8], [20 x i8]* %22, i64 0, i64 0
  %24 = load %struct.student*, %struct.student** %3, align 8
  %25 = getelementptr inbounds %struct.student, %struct.student* %24, i32 0, i32 5
  %26 = getelementptr inbounds [30 x i8], [30 x i8]* %25, i64 0, i64 0
  %27 = call i32 (i8*, ...) @printf(i8* getelementptr inbounds ([19 x i8], [19 x i8]* @.str.2, i64 0, i64 0), i8* %11, i8* %14, i8* %17, i8* %20, i8* %23, i8* %26)
  %28 = load %struct.student*, %struct.student** %3, align 8
  %29 = getelementptr inbounds %struct.student, %struct.student* %28, i32 0, i32 6
  %30 = load %struct.student*, %struct.student** %29, align 8
  store %struct.student* %30, %struct.student** %3, align 8
  br label %31

31:                                               ; preds = %8
  %32 = load %struct.student*, %struct.student** %3, align 8
  %33 = icmp ne %struct.student* %32, null
  br i1 %33, label %8, label %34

34:                                               ; preds = %31
  br label %35

35:                                               ; preds = %34, %1
  ret void
}

declare dso_local i32 @printf(i8*, ...) #2

; Function Attrs: noinline nounwind uwtable
define dso_local i32 @main() #0 {
  %1 = alloca %struct.student*, align 8
  %2 = call %struct.student* @creat()
  store %struct.student* %2, %struct.student** %1, align 8
  %3 = load %struct.student*, %struct.student** %1, align 8
  call void @print(%struct.student* %3)
  ret i32 0
}


!llvm.module.flags = !{!0}
!llvm.ident = !{!1}

!0 = !{i32 1, !"wchar_size", i32 4}
!1 = !{!"clang version 10.0.0-4ubuntu1 "}
